; ModuleID = '51/483.c'
source_filename = "51/483.c"
target datalayout = "e-m:e-p270:32:32-p271:32:32-p272:64:64-i64:64-f80:128-n8:16:32:64-S128"
target triple = "x86_64-pc-linux-gnu"

@.str = private unnamed_addr constant [6 x i8] c"%d %s\00", align 1
@.str.1 = private unnamed_addr constant [3 x i8] c"NO\00", align 1
@.str.2 = private unnamed_addr constant [4 x i8] c"%d\0A\00", align 1

; Function Attrs: noinline nounwind uwtable
define dso_local i32 @main() #0 {
  %1 = alloca i32, align 4
  %2 = alloca i32, align 4
  %3 = alloca [500 x i8], align 16
  %4 = alloca [250 x [5 x i8]], align 16
  %5 = alloca [5 x i8], align 1
  %6 = alloca i32, align 4
  %7 = alloca i32, align 4
  %8 = alloca i32, align 4
  %9 = alloca [250 x i32], align 16
  %10 = alloca i32, align 4
  %11 = alloca i32, align 4
  %12 = alloca i32, align 4
  store i32 0, i32* %1, align 4
  %13 = getelementptr inbounds [500 x i8], [500 x i8]* %3, i64 0, i64 0
  %14 = call i32 (i8*, ...) @__isoc99_scanf(i8* getelementptr inbounds ([6 x i8], [6 x i8]* @.str, i64 0, i64 0), i32* %2, i8* %13)
  store i32 0, i32* %11, align 4
  %15 = getelementptr inbounds [500 x i8], [500 x i8]* %3, i64 0, i64 0
  %16 = call i64 @strlen(i8* %15) #4
  %17 = trunc i64 %16 to i32
  store i32 %17, i32* %8, align 4
  store i32 0, i32* %6, align 4
  br label %18

18:                                               ; preds = %83, %0
  %19 = load i32, i32* %6, align 4
  %20 = load i32, i32* %8, align 4
  %21 = load i32, i32* %2, align 4
  %22 = sub nsw i32 %20, %21
  %23 = icmp sle i32 %19, %22
  br i1 %23, label %24, label %86

24:                                               ; preds = %18
  store i32 0, i32* %7, align 4
  br label %25

25:                                               ; preds = %40, %24
  %26 = load i32, i32* %7, align 4
  %27 = load i32, i32* %2, align 4
  %28 = sub nsw i32 %27, 1
  %29 = icmp sle i32 %26, %28
  br i1 %29, label %30, label %43

30:                                               ; preds = %25
  %31 = load i32, i32* %7, align 4
  %32 = load i32, i32* %6, align 4
  %33 = add nsw i32 %31, %32
  %34 = sext i32 %33 to i64
  %35 = getelementptr inbounds [500 x i8], [500 x i8]* %3, i64 0, i64 %34
  %36 = load i8, i8* %35, align 1
  %37 = load i32, i32* %7, align 4
  %38 = sext i32 %37 to i64
  %39 = getelementptr inbounds [5 x i8], [5 x i8]* %5, i64 0, i64 %38
  store i8 %36, i8* %39, align 1
  br label %40

40:                                               ; preds = %30
  %41 = load i32, i32* %7, align 4
  %42 = add nsw i32 %41, 1
  store i32 %42, i32* %7, align 4
  br label %25

43:                                               ; preds = %25
  %44 = load i32, i32* %2, align 4
  %45 = sext i32 %44 to i64
  %46 = getelementptr inbounds [5 x i8], [5 x i8]* %5, i64 0, i64 %45
  store i8 0, i8* %46, align 1
  store i32 0, i32* %10, align 4
  br label %47

47:                                               ; preds = %79, %43
  %48 = getelementptr inbounds [5 x i8], [5 x i8]* %5, i64 0, i64 0
  %49 = load i32, i32* %10, align 4
  %50 = sext i32 %49 to i64
  %51 = getelementptr inbounds [250 x [5 x i8]], [250 x [5 x i8]]* %4, i64 0, i64 %50
  %52 = getelementptr inbounds [5 x i8], [5 x i8]* %51, i64 0, i64 0
  %53 = call i32 @strcmp(i8* %48, i8* %52) #4
  %54 = icmp eq i32 %53, 0
  br i1 %54, label %55, label %61

55:                                               ; preds = %47
  %56 = load i32, i32* %10, align 4
  %57 = sext i32 %56 to i64
  %58 = getelementptr inbounds [250 x i32], [250 x i32]* %9, i64 0, i64 %57
  %59 = load i32, i32* %58, align 4
  %60 = add nsw i32 %59, 1
  store i32 %60, i32* %58, align 4
  br label %82

61:                                               ; preds = %47
  %62 = load i32, i32* %10, align 4
  %63 = load i32, i32* %11, align 4
  %64 = icmp eq i32 %62, %63
  br i1 %64, label %65, label %77

65:                                               ; preds = %61
  %66 = load i32, i32* %10, align 4
  %67 = sext i32 %66 to i64
  %68 = getelementptr inbounds [250 x [5 x i8]], [250 x [5 x i8]]* %4, i64 0, i64 %67
  %69 = getelementptr inbounds [5 x i8], [5 x i8]* %68, i64 0, i64 0
  %70 = getelementptr inbounds [5 x i8], [5 x i8]* %5, i64 0, i64 0
  %71 = call i8* @strcpy(i8* %69, i8* %70) #5
  %72 = load i32, i32* %10, align 4
  %73 = sext i32 %72 to i64
  %74 = getelementptr inbounds [250 x i32], [250 x i32]* %9, i64 0, i64 %73
  store i32 1, i32* %74, align 4
  %75 = load i32, i32* %11, align 4
  %76 = add nsw i32 %75, 1
  store i32 %76, i32* %11, align 4
  br label %82

77:                                               ; preds = %61
  br label %78

78:                                               ; preds = %77
  br label %79

79:                                               ; preds = %78
  %80 = load i32, i32* %10, align 4
  %81 = add nsw i32 %80, 1
  store i32 %81, i32* %10, align 4
  br label %47

82:                                               ; preds = %65, %55
  br label %83

83:                                               ; preds = %82
  %84 = load i32, i32* %6, align 4
  %85 = add nsw i32 %84, 1
  store i32 %85, i32* %6, align 4
  br label %18

86:                                               ; preds = %18
  store i32 0, i32* %12, align 4
  store i32 0, i32* %6, align 4
  br label %87

87:                                               ; preds = %105, %86
  %88 = load i32, i32* %6, align 4
  %89 = load i32, i32* %11, align 4
  %90 = sub nsw i32 %89, 1
  %91 = icmp sle i32 %88, %90
  br i1 %91, label %92, label %108

92:                                               ; preds = %87
  %93 = load i32, i32* %6, align 4
  %94 = sext i32 %93 to i64
  %95 = getelementptr inbounds [250 x i32], [250 x i32]* %9, i64 0, i64 %94
  %96 = load i32, i32* %95, align 4
  %97 = load i32, i32* %12, align 4
  %98 = sext i32 %97 to i64
  %99 = getelementptr inbounds [250 x i32], [250 x i32]* %9, i64 0, i64 %98
  %100 = load i32, i32* %99, align 4
  %101 = icmp sgt i32 %96, %100
  br i1 %101, label %102, label %104

102:                                              ; preds = %92
  %103 = load i32, i32* %6, align 4
  store i32 %103, i32* %12, align 4
  br label %104

104:                                              ; preds = %102, %92
  br label %105

105:                                              ; preds = %104
  %106 = load i32, i32* %6, align 4
  %107 = add nsw i32 %106, 1
  store i32 %107, i32* %6, align 4
  br label %87

108:                                              ; preds = %87
  %109 = load i32, i32* %12, align 4
  %110 = sext i32 %109 to i64
  %111 = getelementptr inbounds [250 x i32], [250 x i32]* %9, i64 0, i64 %110
  %112 = load i32, i32* %111, align 4
  %113 = icmp eq i32 %112, 1
  br i1 %113, label %114, label %116

114:                                              ; preds = %108
  %115 = call i32 (i8*, ...) @printf(i8* getelementptr inbounds ([3 x i8], [3 x i8]* @.str.1, i64 0, i64 0))
  br label %148

116:                                              ; preds = %108
  %117 = load i32, i32* %12, align 4
  %118 = sext i32 %117 to i64
  %119 = getelementptr inbounds [250 x i32], [250 x i32]* %9, i64 0, i64 %118
  %120 = load i32, i32* %119, align 4
  %121 = call i32 (i8*, ...) @printf(i8* getelementptr inbounds ([4 x i8], [4 x i8]* @.str.2, i64 0, i64 0), i32 %120)
  store i32 0, i32* %6, align 4
  br label %122

122:                                              ; preds = %144, %116
  %123 = load i32, i32* %6, align 4
  %124 = load i32, i32* %11, align 4
  %125 = sub nsw i32 %124, 1
  %126 = icmp sle i32 %123, %125
  br i1 %126, label %127, label %147

127:                                              ; preds = %122
  %128 = load i32, i32* %6, align 4
  %129 = sext i32 %128 to i64
  %130 = getelementptr inbounds [250 x i32], [250 x i32]* %9, i64 0, i64 %129
  %131 = load i32, i32* %130, align 4
  %132 = load i32, i32* %12, align 4
  %133 = sext i32 %132 to i64
  %134 = getelementptr inbounds [250 x i32], [250 x i32]* %9, i64 0, i64 %133
  %135 = load i32, i32* %134, align 4
  %136 = icmp eq i32 %131, %135
  br i1 %136, label %137, label %143

137:                                              ; preds = %127
  %138 = load i32, i32* %6, align 4
  %139 = sext i32 %138 to i64
  %140 = getelementptr inbounds [250 x [5 x i8]], [250 x [5 x i8]]* %4, i64 0, i64 %139
  %141 = getelementptr inbounds [5 x i8], [5 x i8]* %140, i64 0, i64 0
  %142 = call i32 @puts(i8* %141)
  br label %143

143:                                              ; preds = %137, %127
  br label %144

144:                                              ; preds = %143
  %145 = load i32, i32* %6, align 4
  %146 = add nsw i32 %145, 1
  store i32 %146, i32* %6, align 4
  br label %122

147:                                              ; preds = %122
  br label %148

148:                                              ; preds = %147, %114
  %149 = load i32, i32* %1, align 4
  ret i32 %149
}

declare dso_local i32 @__isoc99_scanf(i8*, ...) #1

; Function Attrs: nounwind readonly
declare dso_local i64 @strlen(i8*) #2

; Function Attrs: nounwind readonly
declare dso_local i32 @strcmp(i8*, i8*) #2

; Function Attrs: nounwind
declare dso_local i8* @strcpy(i8*, i8*) #3

declare dso_local i32 @printf(i8*, ...) #1

declare dso_local i32 @puts(i8*) #1


!llvm.module.flags = !{!0}
!llvm.ident = !{!1}

!0 = !{i32 1, !"wchar_size", i32 4}
!1 = !{!"clang version 10.0.0-4ubuntu1 "}
